target datalayout = "e-m:e-p270:32:32-p271:32:32-p272:64:64-i64:64-i128:128-f80:128-n8:16:32:64-S128"
target triple = "x86_64-pc-linux-gnu"

; Function Attrs: nounwind uwtable
define hidden void @luaO_arith(ptr noundef %0, i32 noundef %1, ptr noundef %2, ptr noundef %3, ptr noundef %4) #0 {
  %6 = alloca ptr, align 8
  %7 = alloca i32, align 4
  %8 = alloca ptr, align 8
  %9 = alloca ptr, align 8
  %10 = alloca ptr, align 8
  store ptr %0, ptr %6, align 8, !tbaa !11
  store i32 %1, ptr %7, align 4, !tbaa !4
  store ptr %2, ptr %8, align 8, !tbaa !14
  store ptr %3, ptr %9, align 8, !tbaa !14
  store ptr %4, ptr %10, align 8, !tbaa !22
  %11 = load ptr, ptr %6, align 8, !tbaa !11
  %12 = load i32, ptr %7, align 4, !tbaa !4
  %13 = load ptr, ptr %8, align 8, !tbaa !14
  %14 = load ptr, ptr %9, align 8, !tbaa !14
  %15 = load ptr, ptr %10, align 8, !tbaa !22
  %16 = call i32 @luaO_rawarith(ptr noundef %11, i32 noundef %12, ptr noundef %13, ptr noundef %14, ptr noundef %15)
  %17 = icmp ne i32 %16, 0
  br i1 %17, label %26, label %18

18:                                               ; preds = %5
  %19 = load ptr, ptr %6, align 8, !tbaa !11
  %20 = load ptr, ptr %8, align 8, !tbaa !14
  %21 = load ptr, ptr %9, align 8, !tbaa !14
  %22 = load ptr, ptr %10, align 8, !tbaa !22
  %23 = load i32, ptr %7, align 4, !tbaa !4
  %24 = sub nsw i32 %23, 0
  %25 = add nsw i32 %24, 6
  call void @luaT_trybinTM(ptr noundef %19, ptr noundef %20, ptr noundef %21, ptr noundef %22, i32 noundef %25)
  br label %26

26:                                               ; preds = %18, %5
  ret void
}