; Function Attrs: nounwind uwtable
define hidden void @luaO_arith(ptr noundef %0, i32 noundef %1, ptr noundef %2, ptr noundef %3, ptr noundef %4) local_unnamed_addr #3 {
  %6 = tail call i32 @luaO_rawarith(ptr noundef %0, i32 noundef %1, ptr noundef %2, ptr noundef %3, ptr noundef %4)
  %.not = icmp eq i32 %6, 0
  br i1 %.not, label %7, label %9

7:                                                ; preds = %5
  %8 = add nsw i32 %1, 6
  tail call void @luaT_trybinTM(ptr noundef %0, ptr noundef %2, ptr noundef %3, ptr noundef %4, i32 noundef %8) #18
  br label %9

9:                                                ; preds = %7, %5
  ret void
}